
/workspaces/ics-pa-2020/am-kernels/tests/cpu-tests/build/add-riscv32-nemu.elf:     file format elf32-littleriscv


Disassembly of section .text:

80100000 <_start>:
80100000:	00000413          	li	s0,0
80100004:	00009117          	auipc	sp,0x9
80100008:	ffc10113          	addi	sp,sp,-4 # 80109000 <_end>
8010000c:	0fc000ef          	jal	ra,80100108 <_trm_init>

80100010 <check>:
80100010:	00050463          	beqz	a0,80100018 <check+0x8>
80100014:	00008067          	ret
80100018:	ff010113          	addi	sp,sp,-16
8010001c:	00100513          	li	a0,1
80100020:	00112623          	sw	ra,12(sp)
80100024:	0d8000ef          	jal	ra,801000fc <halt>

80100028 <main>:
80100028:	fd010113          	addi	sp,sp,-48
8010002c:	01312e23          	s3,28(sp)
80100030:	01412c23          	sw	s4,24(sp)
80100034:	01512a23          	sw	s5,20(sp)
80100038:	80100a37          	lui	s4,0x80100
8010003c:	80100ab7          	lui	s5,0x80100
80100040:	801009b7          	lui	s3,0x80100
80100044:	01612823          	sw	s6,16(sp)
80100048:	01712623          	sw	s7,12(sp)
8010004c:	01812423          	sw	s8,8(sp)
80100050:	02112623          	sw	ra,44(sp)
80100054:	22ca0c13          	addi	s8,s4,556 # 8010022c <_end+0xffff722c>
80100058:	02812423          	sw	s0,40(sp)
8010005c:	02912223          	sw	s1,36(sp)
80100060:	03212023          	sw	s2,32(sp)
80100064:	12ca8a93          	addi	s5,s5,300 # 8010012c <_end+0xffff712c>
80100068:	22ca0a13          	addi	s4,s4,556
8010006c:	00000b13          	li	s6,0
80100070:	24c98993          	addi	s3,s3,588 # 8010024c <_end+0xffff724c>
80100074:	04000b93          	li	s7,64
80100078:	000a2903          	lw	s2,0(s4)
8010007c:	000a8493          	mv	s1,s5
80100080:	000c0413          	mv	s0,s8
80100084:	00042503          	lw	a0,0(s0)
80100088:	0004a783          	lw	a5,0(s1)
8010008c:	00440413          	addi	s0,s0,4 
80100090:	00a90533          	add	a0,s2,a0
80100094:	40f50533          	sub	a0,a0,a5
80100098:	00153513          	seqz	a0,a0
8010009c:	f75ff0ef          	jal	ra,80100010 <check>
801000a0:	00448493          	addi	s1,s1,4
801000a4:	fe8990e3          	bne	s3,s0,80100084 <main+0x5c>
801000a8:	00100513          	li	a0,1
801000ac:	008b0b13          	addi	s6,s6,8
801000b0:	f61ff0ef          	jal	ra,80100010 <check>
801000b4:	004a0a13          	addi	s4,s4,4
801000b8:	020a8a93          	addi	s5,s5,32
801000bc:	fb7b1ee3          	bne	s6,s7,80100078 <main+0x50>
801000c0:	00100513          	li	a0,1
801000c4:	f4dff0ef          	jal	ra,80100010 <check>
801000c8:	02c12083          	lw	ra,44(sp)
801000cc:	02812403          	lw	s0,40(sp)
801000d0:	02412483          	lw	s1,36(sp)
801000d4:	02012903          	lw	s2,32(sp)
801000d8:	01c12983          	lw	s3,28(sp)
801000dc:	01812a03          	lw	s4,24(sp)
801000e0:	01412a83          	lw	s5,20(sp)
801000e4:	01012b03          	lw	s6,16(sp)
801000e8:	00c12b83          	lw	s7,12(sp)
801000ec:	00812c03          	lw	s8,8(sp)
801000f0:	00000513          	li	a0,0
801000f4:	03010113          	addi	sp,sp,48
801000f8:	00008067          	ret

801000fc <halt>:
801000fc:	00050513          	mv	a0,a0
80100100:	0000006b          	0x6b
80100104:	0000006f          	j	80100104 <halt+0x8>

80100108 <_trm_init>:
80100108:	80100537          	lui	a0,0x80100
8010010c:	ff010113          	addi	sp,sp,-16
80100110:	12850513          	addi	a0,a0,296 # 80100128 <_end+0xffff7128>
80100114:	00112623          	sw	ra,12(sp)
80100118:	f11ff0ef          	jal	ra,80100028 <main>
8010011c:	00050513          	mv	a0,a0
80100120:	0000006b          	0x6b
80100124:	0000006f          	j	80100124 <_trm_init+0x1c>
